; Function Attrs: mustprogress nofree norecurse nosync nounwind willreturn memory(argmem: write) uwtable
define void @ImfFloatToHalf(float noundef %0, ptr noundef writeonly captures(none) initializes((0, 2)) %1) local_unnamed_addr #3 personality ptr @__gxx_personality_v0 {
  %3 = bitcast float %0 to i32
  %4 = tail call float @llvm.fabs.f32(float %0)
  %5 = bitcast float %4 to i32
  %6 = lshr i32 %3, 16
  %7 = trunc nuw i32 %6 to i16
  %8 = and i16 %7, -32768
  %9 = icmp samesign ugt i32 %5, 947912703
  br i1 %9, label %10, label %36

10:                                               ; preds = %2
  %11 = icmp samesign ugt i32 %5, 2139095039
  br i1 %11, label %12, label %23, !prof !3

12:                                               ; preds = %10
  %13 = or disjoint i16 %8, 31744
  %14 = icmp eq i32 %5, 2139095040
  br i1 %14, label %_ZN9Imath_3_24halfC2Ef.exit, label %15

15:                                               ; preds = %12
  %16 = lshr i32 %5, 13
  %17 = and i32 %16, 1023
  %18 = icmp eq i32 %17, 0
  %19 = zext i1 %18 to i16
  %20 = trunc nuw nsw i32 %17 to i16
  %21 = or i16 %20, %19
  %22 = or disjoint i16 %21, %13
  br label %_ZN9Imath_3_24halfC2Ef.exit

23:                                               ; preds = %10
  %24 = icmp samesign ugt i32 %5, 1199566847
  br i1 %24, label %25, label %27, !prof !3

25:                                               ; preds = %23
  %26 = or disjoint i16 %8, 31744
  br label %_ZN9Imath_3_24halfC2Ef.exit

27:                                               ; preds = %23
  %28 = add nuw nsw i32 %5, 134221823
  %29 = lshr i32 %5, 13
  %30 = and i32 %29, 1
  %31 = add nuw nsw i32 %28, %30
  %32 = lshr i32 %31, 13
  %33 = and i32 %6, 32768
  %34 = or i32 %32, %33
  %35 = trunc i32 %34 to i16
  br label %_ZN9Imath_3_24halfC2Ef.exit

36:                                               ; preds = %2
  %37 = icmp samesign ult i32 %5, 855638017
  br i1 %37, label %_ZN9Imath_3_24halfC2Ef.exit, label %38

38:                                               ; preds = %36
  %39 = lshr i32 %5, 23
  %40 = sub nuw nsw i32 126, %39
  %41 = and i32 %5, 8388607
  %42 = or disjoint i32 %41, 8388608
  %43 = add nsw i32 %39, -94
  %44 = shl i32 %42, %43
  %45 = lshr i32 %42, %40
  %46 = and i32 %6, 32768
  %47 = or i32 %45, %46
  %48 = trunc nuw i32 %47 to i16
  %49 = icmp ugt i32 %44, -2147483648
  br i1 %49, label %53, label %50

50:                                               ; preds = %38
  %51 = icmp ne i32 %44, -2147483648
  %52 = and i32 %45, 1
  %.not.i.i = icmp eq i32 %52, 0
  %or.cond.i.i = select i1 %51, i1 true, i1 %.not.i.i
  br i1 %or.cond.i.i, label %_ZN9Imath_3_24halfC2Ef.exit, label %53

53:                                               ; preds = %50, %38
  %54 = add nuw i16 %48, 1
  br label %_ZN9Imath_3_24halfC2Ef.exit

_ZN9Imath_3_24halfC2Ef.exit:                      ; preds = %12, %15, %25, %27, %36, %50, %53
  %.0.i.i = phi i16 [ %22, %15 ], [ %26, %25 ], [ %35, %27 ], [ %13, %12 ], [ %8, %36 ], [ %54, %53 ], [ %48, %50 ]
  store i16 %.0.i.i, ptr %1, align 2, !tbaa !4
  ret void
}